target datalayout = "e-m:e-p270:32:32-p271:32:32-p272:64:64-i64:64-i128:128-f80:128-n8:16:32:64-S128"
target triple = "x86_64-pc-linux-gnu"

@nsp_handle = internal global ptr null, align 8
@.str.42 = private unnamed_addr constant [1 x i8] zeroinitializer, align 1
@ett_h225_NonStandardIdentifier = internal global i32 0, align 4
@nsp_object_dissector_table = internal global ptr null, align 8
@nsp_h221_dissector_table = internal global ptr null, align 8
@nsiOID = internal global ptr null, align 8
@h221NonStandard = internal global i32 0, align 4

; Function Attrs: null_pointer_is_valid sspstrong uwtable
define internal i32 @dissect_h225_NonStandardIdentifier(ptr noundef %0, i32 noundef %1, ptr noundef %2, ptr noundef %3, i32 noundef %4) #0 {
  %6 = alloca ptr, align 8
  %7 = alloca i32, align 4
  %8 = alloca ptr, align 8
  %9 = alloca ptr, align 8
  %10 = alloca i32, align 4
  %11 = alloca i32, align 4
  store ptr %0, ptr %6, align 8
  store i32 %1, ptr %7, align 4
  store ptr %2, ptr %8, align 8
  store ptr %3, ptr %9, align 8
  store i32 %4, ptr %10, align 4
  call void @llvm.lifetime.start.p0(i64 4, ptr %11) #11
  store ptr @.str.42, ptr @nsiOID, align 8
  store i32 0, ptr @h221NonStandard, align 4
  %12 = load ptr, ptr %6, align 8
  %13 = load i32, ptr %7, align 4
  %14 = load ptr, ptr %8, align 8
  %15 = load ptr, ptr %9, align 8
  %16 = load i32, ptr %10, align 4
  %17 = load i32, ptr @ett_h225_NonStandardIdentifier, align 4
  %18 = call i32 @dissect_per_choice(ptr noundef %12, i32 noundef %13, ptr noundef %14, ptr noundef %15, i32 noundef %16, i32 noundef %17, ptr noundef @NonStandardIdentifier_choice, ptr noundef %11)
  store i32 %18, ptr %7, align 4
  %19 = load i32, ptr %11, align 4
  switch i32 %19, label %28 [
    i32 0, label %20
    i32 1, label %24
  ]

20:                                               ; preds = %5
  %21 = load ptr, ptr @nsp_object_dissector_table, align 8
  %22 = load ptr, ptr @nsiOID, align 8
  %23 = call ptr @dissector_get_string_handle(ptr noundef %21, ptr noundef %22)
  store ptr %23, ptr @nsp_handle, align 8
  br label %29

24:                                               ; preds = %5
  %25 = load ptr, ptr @nsp_h221_dissector_table, align 8
  %26 = load i32, ptr @h221NonStandard, align 4
  %27 = call ptr @dissector_get_uint_handle(ptr noundef %25, i32 noundef %26)
  store ptr %27, ptr @nsp_handle, align 8
  br label %29

28:                                               ; preds = %5
  store ptr null, ptr @nsp_handle, align 8
  br label %29

29:                                               ; preds = %28, %24, %20
  %30 = load i32, ptr %7, align 4
  call void @llvm.lifetime.end.p0(i64 4, ptr %11) #11
  ret i32 %30
}